; Function Attrs: mustprogress nounwind uwtable
define dso_local void @_ZN9Stockfish6Thread15start_searchingEv(ptr noundef nonnull align 8 dereferenceable(136) %0) local_unnamed_addr #3 align 2 {
  %2 = getelementptr inbounds i8, ptr %0, i64 16
  %3 = tail call noundef i32 @pthread_mutex_lock(ptr noundef nonnull %2) #14
  %.not.i = icmp eq i32 %3, 0
  br i1 %.not.i, label %_ZNSt5mutex4lockEv.exit, label %4

4:                                                ; preds = %1
  tail call void @_ZSt20__throw_system_errori(i32 noundef %3) #15
  unreachable

_ZNSt5mutex4lockEv.exit:                          ; preds = %1
  %5 = getelementptr inbounds i8, ptr %0, i64 121
  store i8 1, ptr %5, align 1
  %6 = tail call noundef i32 @pthread_mutex_unlock(ptr noundef nonnull %2) #14
  %7 = getelementptr inbounds i8, ptr %0, i64 56
  tail call void @_ZNSt18condition_variable10notify_oneEv(ptr noundef nonnull align 8 dereferenceable(48) %7) #14
  ret void
}